target datalayout = "e-m:e-p270:32:32-p271:32:32-p272:64:64-i64:64-i128:128-f80:128-n8:16:32:64-S128"
target triple = "x86_64-pc-linux-gnu"

%"class.g2o::Solver" = type { ptr, ptr, ptr, ptr, i64, i64, i8, i64 }

@_ZTISt9bad_alloc = external constant ptr
@_ZTVSt9bad_alloc = available_externally unnamed_addr constant { [5 x ptr] } { [5 x ptr] [ptr null, ptr @_ZTISt9bad_alloc, ptr @_ZNSt9bad_allocD1Ev, ptr @_ZNSt9bad_allocD0Ev, ptr @_ZNKSt9bad_alloc4whatEv] }, align 8
@_ZTVSt9exception = available_externally unnamed_addr constant { [5 x ptr] } { [5 x ptr] [ptr null, ptr @_ZTISt9exception, ptr @_ZNSt9exceptionD1Ev, ptr @_ZNSt9exceptionD0Ev, ptr @_ZNKSt9exception4whatEv] }, align 8

; Function Attrs: mustprogress nounwind uwtable
define linkonce_odr void @_ZNSt9exceptionC2Ev(ptr noundef nonnull align 8 dereferenceable(8) %0) unnamed_addr #1 comdat align 2 {
  %2 = alloca ptr, align 8
  store ptr %0, ptr %2, align 8, !tbaa !45
  %3 = load ptr, ptr %2, align 8
  store ptr getelementptr inbounds inrange(-16, 24) ({ [5 x ptr] }, ptr @_ZTVSt9exception, i32 0, i32 0, i32 2), ptr %3, align 8, !tbaa !16
  ret void
}

; Function Attrs: mustprogress nounwind uwtable
define linkonce_odr void @_ZNSt9bad_allocC2Ev(ptr noundef nonnull align 8 dereferenceable(8) %0) unnamed_addr #1 comdat align 2 {
  %2 = alloca ptr, align 8
  store ptr %0, ptr %2, align 8, !tbaa !43
  %3 = load ptr, ptr %2, align 8
  call void @_ZNSt9exceptionC2Ev(ptr noundef nonnull align 8 dereferenceable(8) %3) #6
  store ptr getelementptr inbounds inrange(-16, 24) ({ [5 x ptr] }, ptr @_ZTVSt9bad_alloc, i32 0, i32 0, i32 2), ptr %3, align 8, !tbaa !16
  ret void
}

; Function Attrs: inlinehint mustprogress uwtable
define linkonce_odr void @_ZN5Eigen8internal19throw_std_bad_allocEv() #11 comdat {
  %1 = call ptr @__cxa_allocate_exception(i64 8) #6
  call void @_ZNSt9bad_allocC2Ev(ptr noundef nonnull align 8 dereferenceable(8) %1) #6
  call void @__cxa_throw(ptr %1, ptr @_ZTISt9bad_alloc, ptr @_ZNSt9bad_allocD1Ev) #15
  unreachable
}

; Function Attrs: inlinehint mustprogress nounwind uwtable
define linkonce_odr void @_ZN5Eigen8internal28check_that_malloc_is_allowedEv() #10 comdat {
  ret void
}

; Function Attrs: inlinehint mustprogress uwtable
define linkonce_odr noundef ptr @_ZN5Eigen8internal14aligned_mallocEm(i64 noundef %0) #11 comdat {
  %2 = alloca i64, align 8
  %3 = alloca ptr, align 8
  store i64 %0, ptr %2, align 8, !tbaa !31
  call void @_ZN5Eigen8internal28check_that_malloc_is_allowedEv()
  call void @llvm.lifetime.start.p0(i64 8, ptr %3) #6
  %4 = load i64, ptr %2, align 8, !tbaa !31
  %5 = call noalias ptr @malloc(i64 noundef %4) #14
  store ptr %5, ptr %3, align 8, !tbaa !42
  %6 = load ptr, ptr %3, align 8, !tbaa !42
  %7 = icmp ne ptr %6, null
  br i1 %7, label %12, label %8

8:                                                ; preds = %1
  %9 = load i64, ptr %2, align 8, !tbaa !31
  %10 = icmp ne i64 %9, 0
  br i1 %10, label %11, label %12

11:                                               ; preds = %8
  call void @_ZN5Eigen8internal19throw_std_bad_allocEv()
  br label %12

12:                                               ; preds = %11, %8, %1
  %13 = load ptr, ptr %3, align 8, !tbaa !42
  call void @llvm.lifetime.end.p0(i64 8, ptr %3) #6
  ret ptr %13
}

; Function Attrs: inlinehint mustprogress nounwind uwtable
define linkonce_odr void @_ZN5Eigen8internal12aligned_freeEPv(ptr noundef %0) #10 comdat {
  %2 = alloca ptr, align 8
  store ptr %0, ptr %2, align 8, !tbaa !42
  %3 = load ptr, ptr %2, align 8, !tbaa !42
  call void @free(ptr noundef %3) #6
  ret void
}

; Function Attrs: inlinehint mustprogress nounwind uwtable
define linkonce_odr void @_ZSt4swapIPdENSt9enable_ifIXsr6__and_ISt6__not_ISt15__is_tuple_likeIT_EESt21is_move_constructibleIS4_ESt18is_move_assignableIS4_EEE5valueEvE4typeERS4_SD_(ptr noundef nonnull align 8 dereferenceable(8) %0, ptr noundef nonnull align 8 dereferenceable(8) %1) #10 comdat {
  %3 = alloca ptr, align 8
  %4 = alloca ptr, align 8
  %5 = alloca ptr, align 8
  store ptr %0, ptr %3, align 8, !tbaa !32
  store ptr %1, ptr %4, align 8, !tbaa !32
  call void @llvm.lifetime.start.p0(i64 8, ptr %5) #6
  %6 = load ptr, ptr %3, align 8, !tbaa !32
  %7 = load ptr, ptr %6, align 8, !tbaa !30
  store ptr %7, ptr %5, align 8, !tbaa !30
  %8 = load ptr, ptr %4, align 8, !tbaa !32
  %9 = load ptr, ptr %8, align 8, !tbaa !30
  %10 = load ptr, ptr %3, align 8, !tbaa !32
  store ptr %9, ptr %10, align 8, !tbaa !30
  %11 = load ptr, ptr %5, align 8, !tbaa !30
  %12 = load ptr, ptr %4, align 8, !tbaa !32
  store ptr %11, ptr %12, align 8, !tbaa !30
  call void @llvm.lifetime.end.p0(i64 8, ptr %5) #6
  ret void
}

; Function Attrs: mustprogress uwtable
define linkonce_odr noundef ptr @_ZN3g2o16allocate_alignedIdEEPT_m(i64 noundef %0) #3 comdat {
  %2 = alloca i64, align 8
  store i64 %0, ptr %2, align 8, !tbaa !31
  %3 = load i64, ptr %2, align 8, !tbaa !31
  %4 = mul i64 %3, 8
  %5 = call noundef ptr @_ZN5Eigen8internal14aligned_mallocEm(i64 noundef %4)
  ret ptr %5
}

; Function Attrs: mustprogress uwtable
define linkonce_odr void @_ZN3g2o12free_alignedIdEEvPT_(ptr noundef %0) #3 comdat {
  %2 = alloca ptr, align 8
  store ptr %0, ptr %2, align 8, !tbaa !30
  %3 = load ptr, ptr %2, align 8, !tbaa !30
  call void @_ZN5Eigen8internal12aligned_freeEPv(ptr noundef %3)
  ret void
}

; Function Attrs: mustprogress uwtable
define void @_ZN3g2o6Solver12resizeVectorEm(ptr noundef nonnull align 8 dereferenceable(64) %0, i64 noundef %1) #3 align 2 {
  %3 = alloca ptr, align 8
  %4 = alloca i64, align 8
  %5 = alloca i64, align 8
  store ptr %0, ptr %3, align 8, !tbaa !14
  store i64 %1, ptr %4, align 8, !tbaa !31
  %6 = load ptr, ptr %3, align 8
  call void @llvm.lifetime.start.p0(i64 8, ptr %5) #6
  %7 = getelementptr inbounds nuw %"class.g2o::Solver", ptr %6, i32 0, i32 4
  %8 = load i64, ptr %7, align 8, !tbaa !26
  store i64 %8, ptr %5, align 8, !tbaa !31
  %9 = load i64, ptr %4, align 8, !tbaa !31
  %10 = getelementptr inbounds nuw %"class.g2o::Solver", ptr %6, i32 0, i32 4
  store i64 %9, ptr %10, align 8, !tbaa !26
  %11 = getelementptr inbounds nuw %"class.g2o::Solver", ptr %6, i32 0, i32 7
  %12 = load i64, ptr %11, align 8, !tbaa !29
  %13 = load i64, ptr %4, align 8, !tbaa !31
  %14 = add i64 %13, %12
  store i64 %14, ptr %4, align 8, !tbaa !31
  %15 = getelementptr inbounds nuw %"class.g2o::Solver", ptr %6, i32 0, i32 5
  %16 = load i64, ptr %15, align 8, !tbaa !27
  %17 = load i64, ptr %4, align 8, !tbaa !31
  %18 = icmp ult i64 %16, %17
  br i1 %18, label %19, label %53

19:                                               ; preds = %2
  %20 = load i64, ptr %4, align 8, !tbaa !31
  %21 = mul i64 2, %20
  %22 = getelementptr inbounds nuw %"class.g2o::Solver", ptr %6, i32 0, i32 5
  store i64 %21, ptr %22, align 8, !tbaa !27
  %23 = getelementptr inbounds nuw %"class.g2o::Solver", ptr %6, i32 0, i32 2
  %24 = load ptr, ptr %23, align 8, !tbaa !24
  call void @_ZN3g2o12free_alignedIdEEvPT_(ptr noundef %24)
  %25 = getelementptr inbounds nuw %"class.g2o::Solver", ptr %6, i32 0, i32 5
  %26 = load i64, ptr %25, align 8, !tbaa !27
  %27 = call noundef ptr @_ZN3g2o16allocate_alignedIdEEPT_m(i64 noundef %26)
  %28 = getelementptr inbounds nuw %"class.g2o::Solver", ptr %6, i32 0, i32 2
  store ptr %27, ptr %28, align 8, !tbaa !24
  %29 = getelementptr inbounds nuw %"class.g2o::Solver", ptr %6, i32 0, i32 3
  %30 = load ptr, ptr %29, align 8, !tbaa !25
  %31 = icmp ne ptr %30, null
  br i1 %31, label %32, label %47

32:                                               ; preds = %19
  %33 = getelementptr inbounds nuw %"class.g2o::Solver", ptr %6, i32 0, i32 2
  %34 = load ptr, ptr %33, align 8, !tbaa !24
  %35 = getelementptr inbounds nuw %"class.g2o::Solver", ptr %6, i32 0, i32 3
  %36 = load ptr, ptr %35, align 8, !tbaa !25
  %37 = load i64, ptr %5, align 8, !tbaa !31
  %38 = mul i64 %37, 8
  call void @llvm.memcpy.p0.p0.i64(ptr align 8 %34, ptr align 8 %36, i64 %38, i1 false)
  %39 = getelementptr inbounds nuw %"class.g2o::Solver", ptr %6, i32 0, i32 3
  %40 = load ptr, ptr %39, align 8, !tbaa !25
  call void @_ZN3g2o12free_alignedIdEEvPT_(ptr noundef %40)
  %41 = getelementptr inbounds nuw %"class.g2o::Solver", ptr %6, i32 0, i32 5
  %42 = load i64, ptr %41, align 8, !tbaa !27
  %43 = call noundef ptr @_ZN3g2o16allocate_alignedIdEEPT_m(i64 noundef %42)
  %44 = getelementptr inbounds nuw %"class.g2o::Solver", ptr %6, i32 0, i32 3
  store ptr %43, ptr %44, align 8, !tbaa !25
  %45 = getelementptr inbounds nuw %"class.g2o::Solver", ptr %6, i32 0, i32 3
  %46 = getelementptr inbounds nuw %"class.g2o::Solver", ptr %6, i32 0, i32 2
  call void @_ZSt4swapIPdENSt9enable_ifIXsr6__and_ISt6__not_ISt15__is_tuple_likeIT_EESt21is_move_constructibleIS4_ESt18is_move_assignableIS4_EEE5valueEvE4typeERS4_SD_(ptr noundef nonnull align 8 dereferenceable(8) %45, ptr noundef nonnull align 8 dereferenceable(8) %46) #6
  br label %52

47:                                               ; preds = %19
  %48 = getelementptr inbounds nuw %"class.g2o::Solver", ptr %6, i32 0, i32 5
  %49 = load i64, ptr %48, align 8, !tbaa !27
  %50 = call noundef ptr @_ZN3g2o16allocate_alignedIdEEPT_m(i64 noundef %49)
  %51 = getelementptr inbounds nuw %"class.g2o::Solver", ptr %6, i32 0, i32 3
  store ptr %50, ptr %51, align 8, !tbaa !25
  br label %52

52:                                               ; preds = %47, %32
  br label %53

53:                                               ; preds = %52, %2
  call void @llvm.lifetime.end.p0(i64 8, ptr %5) #6
  ret void
}