; Function Attrs: mustprogress uwtable
define void @_ZN3g2o6Solver12resizeVectorEm(ptr noundef nonnull align 8 captures(none) dereferenceable(64) %0, i64 noundef %1) local_unnamed_addr #8 align 2 {
  %3 = getelementptr inbounds nuw i8, ptr %0, i64 32
  %4 = load i64, ptr %3, align 8, !tbaa !16
  store i64 %1, ptr %3, align 8, !tbaa !16
  %5 = getelementptr inbounds nuw i8, ptr %0, i64 56
  %6 = load i64, ptr %5, align 8, !tbaa !6
  %7 = add i64 %6, %1
  %8 = getelementptr inbounds nuw i8, ptr %0, i64 40
  %9 = load i64, ptr %8, align 8, !tbaa !17
  %10 = icmp ult i64 %9, %7
  br i1 %10, label %11, label %39

11:                                               ; preds = %2
  %12 = shl i64 %7, 1
  store i64 %12, ptr %8, align 8, !tbaa !17
  %13 = getelementptr inbounds nuw i8, ptr %0, i64 16
  %14 = load ptr, ptr %13, align 8, !tbaa !14
  tail call void @free(ptr noundef %14) #16
  %15 = load i64, ptr %8, align 8, !tbaa !17
  %16 = shl i64 %15, 3
  %17 = tail call noalias ptr @malloc(i64 noundef %16) #18
  %18 = icmp eq ptr %17, null
  %19 = icmp ne i64 %16, 0
  %or.cond.i.i = and i1 %19, %18
  br i1 %or.cond.i.i, label %20, label %_ZN3g2o16allocate_alignedIdEEPT_m.exit

20:                                               ; preds = %11
  %21 = tail call ptr @__cxa_allocate_exception(i64 8) #16
  store ptr getelementptr inbounds nuw inrange(-16, 24) (i8, ptr @_ZTVSt9bad_alloc, i64 16), ptr %21, align 8, !tbaa !3
  tail call void @__cxa_throw(ptr nonnull %21, ptr nonnull @_ZTISt9bad_alloc, ptr nonnull @_ZNSt9bad_allocD1Ev) #19
  unreachable

_ZN3g2o16allocate_alignedIdEEPT_m.exit:           ; preds = %11
  store ptr %17, ptr %13, align 8, !tbaa !14
  %22 = getelementptr inbounds nuw i8, ptr %0, i64 24
  %23 = load ptr, ptr %22, align 8, !tbaa !15
  %.not = icmp eq ptr %23, null
  br i1 %.not, label %34, label %24

24:                                               ; preds = %_ZN3g2o16allocate_alignedIdEEPT_m.exit
  %25 = shl i64 %4, 3
  tail call void @llvm.memcpy.p0.p0.i64(ptr align 8 %17, ptr nonnull align 8 %23, i64 %25, i1 false)
  tail call void @free(ptr noundef nonnull %23) #16
  %26 = load i64, ptr %8, align 8, !tbaa !17
  %27 = shl i64 %26, 3
  %28 = tail call noalias ptr @malloc(i64 noundef %27) #18
  %29 = icmp eq ptr %28, null
  %30 = icmp ne i64 %27, 0
  %or.cond.i.i6 = and i1 %30, %29
  br i1 %or.cond.i.i6, label %31, label %_ZN3g2o16allocate_alignedIdEEPT_m.exit7

31:                                               ; preds = %24
  %32 = tail call ptr @__cxa_allocate_exception(i64 8) #16
  store ptr getelementptr inbounds nuw inrange(-16, 24) (i8, ptr @_ZTVSt9bad_alloc, i64 16), ptr %32, align 8, !tbaa !3
  tail call void @__cxa_throw(ptr nonnull %32, ptr nonnull @_ZTISt9bad_alloc, ptr nonnull @_ZNSt9bad_allocD1Ev) #19
  unreachable

_ZN3g2o16allocate_alignedIdEEPT_m.exit7:          ; preds = %24
  %33 = load ptr, ptr %13, align 8, !tbaa !18
  store ptr %33, ptr %22, align 8, !tbaa !18
  store ptr %28, ptr %13, align 8, !tbaa !18
  br label %39

34:                                               ; preds = %_ZN3g2o16allocate_alignedIdEEPT_m.exit
  %35 = tail call noalias ptr @malloc(i64 noundef %16) #18
  %36 = icmp eq ptr %35, null
  %or.cond.i.i8 = and i1 %19, %36
  br i1 %or.cond.i.i8, label %37, label %_ZN3g2o16allocate_alignedIdEEPT_m.exit9

37:                                               ; preds = %34
  %38 = tail call ptr @__cxa_allocate_exception(i64 8) #16
  store ptr getelementptr inbounds nuw inrange(-16, 24) (i8, ptr @_ZTVSt9bad_alloc, i64 16), ptr %38, align 8, !tbaa !3
  tail call void @__cxa_throw(ptr nonnull %38, ptr nonnull @_ZTISt9bad_alloc, ptr nonnull @_ZNSt9bad_allocD1Ev) #19
  unreachable

_ZN3g2o16allocate_alignedIdEEPT_m.exit9:          ; preds = %34
  store ptr %35, ptr %22, align 8, !tbaa !15
  br label %39

39:                                               ; preds = %_ZN3g2o16allocate_alignedIdEEPT_m.exit7, %_ZN3g2o16allocate_alignedIdEEPT_m.exit9, %2
  ret void
}